target datalayout = "e-m:e-p270:32:32-p271:32:32-p272:64:64-i64:64-i128:128-f80:128-n8:16:32:64-S128"
target triple = "x86_64-pc-linux-gnu"

%struct.t_psdata = type { ptr, %"class.std::vector", float, i32 }
%"class.std::vector" = type { %"struct.std::_Vector_base" }
%"struct.std::_Vector_base" = type { %"struct.std::_Vector_base<t_rgb, std::allocator<t_rgb>>::_Vector_impl" }
%"struct.std::_Vector_base<t_rgb, std::allocator<t_rgb>>::_Vector_impl" = type { %"struct.std::_Vector_base<t_rgb, std::allocator<t_rgb>>::_Vector_impl_data" }
%"struct.std::_Vector_base<t_rgb, std::allocator<t_rgb>>::_Vector_impl_data" = type { ptr, ptr, ptr }

@.str.43 = private unnamed_addr constant [60 x i8] c"newpath %g %g %g %g %g arc %g %g %g %g %g arcn closepath s\0A\00", align 1

; Function Attrs: mustprogress nounwind uwtable
define void @_Z11ps_arcsliceP8t_psdataffffff(ptr noundef %0, float noundef %1, float noundef %2, float noundef %3, float noundef %4, float noundef %5, float noundef %6) #3 {
  %8 = alloca ptr, align 8
  %9 = alloca float, align 4
  %10 = alloca float, align 4
  %11 = alloca float, align 4
  %12 = alloca float, align 4
  %13 = alloca float, align 4
  %14 = alloca float, align 4
  store ptr %0, ptr %8, align 8, !tbaa !26
  store float %1, ptr %9, align 4, !tbaa !15
  store float %2, ptr %10, align 4, !tbaa !15
  store float %3, ptr %11, align 4, !tbaa !15
  store float %4, ptr %12, align 4, !tbaa !15
  store float %5, ptr %13, align 4, !tbaa !15
  store float %6, ptr %14, align 4, !tbaa !15
  %15 = load ptr, ptr %8, align 8, !tbaa !26
  %16 = getelementptr inbounds nuw %struct.t_psdata, ptr %15, i32 0, i32 0
  %17 = load ptr, ptr %16, align 8, !tbaa !17
  %18 = load float, ptr %9, align 4, !tbaa !15
  %19 = fpext float %18 to double
  %20 = load float, ptr %10, align 4, !tbaa !15
  %21 = fpext float %20 to double
  %22 = load float, ptr %11, align 4, !tbaa !15
  %23 = fpext float %22 to double
  %24 = load float, ptr %13, align 4, !tbaa !15
  %25 = fpext float %24 to double
  %26 = load float, ptr %14, align 4, !tbaa !15
  %27 = fpext float %26 to double
  %28 = load float, ptr %9, align 4, !tbaa !15
  %29 = fpext float %28 to double
  %30 = load float, ptr %10, align 4, !tbaa !15
  %31 = fpext float %30 to double
  %32 = load float, ptr %12, align 4, !tbaa !15
  %33 = fpext float %32 to double
  %34 = load float, ptr %14, align 4, !tbaa !15
  %35 = fpext float %34 to double
  %36 = load float, ptr %13, align 4, !tbaa !15
  %37 = fpext float %36 to double
  %38 = call i32 (ptr, ptr, ...) @fprintf(ptr noundef %17, ptr noundef @.str.43, double noundef %19, double noundef %21, double noundef %23, double noundef %25, double noundef %27, double noundef %29, double noundef %31, double noundef %33, double noundef %35, double noundef %37) #14
  ret void
}