; Function Attrs: mustprogress nofree nounwind uwtable
define void @_Z11ps_arcsliceP8t_psdataffffff(ptr noundef readonly captures(none) %0, float noundef %1, float noundef %2, float noundef %3, float noundef %4, float noundef %5, float noundef %6) local_unnamed_addr #8 {
  %8 = load ptr, ptr %0, align 8, !tbaa !9
  %9 = fpext float %1 to double
  %10 = fpext float %2 to double
  %11 = fpext float %3 to double
  %12 = fpext float %5 to double
  %13 = fpext float %6 to double
  %14 = fpext float %4 to double
  %15 = tail call i32 (ptr, ptr, ...) @fprintf(ptr noundef %8, ptr noundef nonnull @.str.43, double noundef %9, double noundef %10, double noundef %11, double noundef %12, double noundef %13, double noundef %9, double noundef %10, double noundef %14, double noundef %13, double noundef %12) #18
  ret void
}